target datalayout = "e-m:e-p270:32:32-p271:32:32-p272:64:64-i64:64-i128:128-f80:128-n8:16:32:64-S128"
target triple = "x86_64-pc-linux-gnu"

%struct.GenerationContext = type { %struct.MemoryContextData, i32, i32, i32, i32, ptr, ptr, %struct.dlist_head }
%struct.MemoryContextData = type { i32, i8, i8, i64, ptr, ptr, ptr, ptr, ptr, ptr, ptr, ptr }
%struct.dlist_head = type { %struct.dlist_node }
%struct.dlist_node = type { ptr, ptr }
%struct.GenerationBlock = type { %struct.dlist_node, ptr, i64, i32, i32, ptr, ptr }
%struct.dlist_iter = type { ptr, ptr }
%struct.MemoryContextCounters = type { i64, i64, i64, i64 }

@.str.4 = private unnamed_addr constant [70 x i8] c"%zu total in %zu blocks (%zu chunks); %zu free (%zu chunks); %zu used\00", align 1

; Function Attrs: nounwind uwtable
define dso_local void @GenerationStats(ptr noundef %0, ptr noundef %1, ptr noundef %2, ptr noundef %3, i1 noundef zeroext %4) #0 {
  %6 = alloca ptr, align 8
  %7 = alloca ptr, align 8
  %8 = alloca ptr, align 8
  %9 = alloca ptr, align 8
  %10 = alloca i8, align 1
  %11 = alloca ptr, align 8
  %12 = alloca i64, align 8
  %13 = alloca i64, align 8
  %14 = alloca i64, align 8
  %15 = alloca i64, align 8
  %16 = alloca i64, align 8
  %17 = alloca %struct.dlist_iter, align 8
  %18 = alloca i32, align 4
  %19 = alloca i32, align 4
  %20 = alloca ptr, align 8
  %21 = alloca i32, align 4
  %22 = alloca i32, align 4
  %23 = alloca [200 x i8], align 16
  store ptr %0, ptr %6, align 8
  store ptr %1, ptr %7, align 8
  store ptr %2, ptr %8, align 8
  store ptr %3, ptr %9, align 8
  %24 = zext i1 %4 to i8
  store i8 %24, ptr %10, align 1
  call void @llvm.lifetime.start.p0(i64 8, ptr %11) #12
  %25 = load ptr, ptr %6, align 8
  store ptr %25, ptr %11, align 8
  call void @llvm.lifetime.start.p0(i64 8, ptr %12) #12
  store i64 0, ptr %12, align 8
  call void @llvm.lifetime.start.p0(i64 8, ptr %13) #12
  store i64 0, ptr %13, align 8
  call void @llvm.lifetime.start.p0(i64 8, ptr %14) #12
  store i64 0, ptr %14, align 8
  call void @llvm.lifetime.start.p0(i64 8, ptr %15) #12
  call void @llvm.lifetime.start.p0(i64 8, ptr %16) #12
  store i64 0, ptr %16, align 8
  call void @llvm.lifetime.start.p0(i64 16, ptr %17) #12
  store i64 128, ptr %15, align 8
  br label %26

26:                                               ; preds = %5
  br label %27

27:                                               ; preds = %26
  br label %28

28:                                               ; preds = %27
  store i32 1, ptr %18, align 4
  br label %29

29:                                               ; preds = %28
  br label %30

30:                                               ; preds = %29
  br label %31

31:                                               ; preds = %30
  store i32 1, ptr %19, align 4
  %32 = load ptr, ptr %11, align 8
  %33 = getelementptr inbounds nuw %struct.GenerationContext, ptr %32, i32 0, i32 7
  %34 = getelementptr inbounds nuw %struct.dlist_head, ptr %33, i32 0, i32 0
  %35 = getelementptr inbounds nuw %struct.dlist_iter, ptr %17, i32 0, i32 1
  store ptr %34, ptr %35, align 8
  %36 = getelementptr inbounds nuw %struct.dlist_iter, ptr %17, i32 0, i32 1
  %37 = load ptr, ptr %36, align 8
  %38 = getelementptr inbounds nuw %struct.dlist_node, ptr %37, i32 0, i32 1
  %39 = load ptr, ptr %38, align 8
  %40 = icmp ne ptr %39, null
  br i1 %40, label %41, label %46

41:                                               ; preds = %31
  %42 = getelementptr inbounds nuw %struct.dlist_iter, ptr %17, i32 0, i32 1
  %43 = load ptr, ptr %42, align 8
  %44 = getelementptr inbounds nuw %struct.dlist_node, ptr %43, i32 0, i32 1
  %45 = load ptr, ptr %44, align 8
  br label %49

46:                                               ; preds = %31
  %47 = getelementptr inbounds nuw %struct.dlist_iter, ptr %17, i32 0, i32 1
  %48 = load ptr, ptr %47, align 8
  br label %49

49:                                               ; preds = %46, %41
  %50 = phi ptr [ %45, %41 ], [ %48, %46 ]
  %51 = getelementptr inbounds nuw %struct.dlist_iter, ptr %17, i32 0, i32 0
  store ptr %50, ptr %51, align 8
  br label %52

52:                                               ; preds = %98, %49
  %53 = getelementptr inbounds nuw %struct.dlist_iter, ptr %17, i32 0, i32 0
  %54 = load ptr, ptr %53, align 8
  %55 = getelementptr inbounds nuw %struct.dlist_iter, ptr %17, i32 0, i32 1
  %56 = load ptr, ptr %55, align 8
  %57 = icmp ne ptr %54, %56
  br i1 %57, label %58, label %104

58:                                               ; preds = %52
  call void @llvm.lifetime.start.p0(i64 8, ptr %20) #12
  br label %59

59:                                               ; preds = %58
  br label %60

60:                                               ; preds = %59
  br label %61

61:                                               ; preds = %60
  store i32 1, ptr %21, align 4
  br label %62

62:                                               ; preds = %61
  br label %63

63:                                               ; preds = %62
  br label %64

64:                                               ; preds = %63
  store i32 1, ptr %22, align 4
  %65 = getelementptr inbounds nuw %struct.dlist_iter, ptr %17, i32 0, i32 0
  %66 = load ptr, ptr %65, align 8
  %67 = getelementptr inbounds i8, ptr %66, i64 0
  store ptr %67, ptr %20, align 8
  %68 = load i64, ptr %12, align 8
  %69 = add i64 %68, 1
  store i64 %69, ptr %12, align 8
  %70 = load ptr, ptr %20, align 8
  %71 = getelementptr inbounds nuw %struct.GenerationBlock, ptr %70, i32 0, i32 3
  %72 = load i32, ptr %71, align 8
  %73 = sext i32 %72 to i64
  %74 = load i64, ptr %13, align 8
  %75 = add i64 %74, %73
  store i64 %75, ptr %13, align 8
  %76 = load ptr, ptr %20, align 8
  %77 = getelementptr inbounds nuw %struct.GenerationBlock, ptr %76, i32 0, i32 4
  %78 = load i32, ptr %77, align 4
  %79 = sext i32 %78 to i64
  %80 = load i64, ptr %14, align 8
  %81 = add i64 %80, %79
  store i64 %81, ptr %14, align 8
  %82 = load ptr, ptr %20, align 8
  %83 = getelementptr inbounds nuw %struct.GenerationBlock, ptr %82, i32 0, i32 2
  %84 = load i64, ptr %83, align 8
  %85 = load i64, ptr %15, align 8
  %86 = add i64 %85, %84
  store i64 %86, ptr %15, align 8
  %87 = load ptr, ptr %20, align 8
  %88 = getelementptr inbounds nuw %struct.GenerationBlock, ptr %87, i32 0, i32 6
  %89 = load ptr, ptr %88, align 8
  %90 = load ptr, ptr %20, align 8
  %91 = getelementptr inbounds nuw %struct.GenerationBlock, ptr %90, i32 0, i32 5
  %92 = load ptr, ptr %91, align 8
  %93 = ptrtoint ptr %89 to i64
  %94 = ptrtoint ptr %92 to i64
  %95 = sub i64 %93, %94
  %96 = load i64, ptr %16, align 8
  %97 = add i64 %96, %95
  store i64 %97, ptr %16, align 8
  call void @llvm.lifetime.end.p0(i64 8, ptr %20) #12
  br label %98

98:                                               ; preds = %64
  %99 = getelementptr inbounds nuw %struct.dlist_iter, ptr %17, i32 0, i32 0
  %100 = load ptr, ptr %99, align 8
  %101 = getelementptr inbounds nuw %struct.dlist_node, ptr %100, i32 0, i32 1
  %102 = load ptr, ptr %101, align 8
  %103 = getelementptr inbounds nuw %struct.dlist_iter, ptr %17, i32 0, i32 0
  store ptr %102, ptr %103, align 8
  br label %52, !llvm.loop !8

104:                                              ; preds = %52
  %105 = load ptr, ptr %7, align 8
  %106 = icmp ne ptr %105, null
  br i1 %106, label %107, label %124

107:                                              ; preds = %104
  call void @llvm.lifetime.start.p0(i64 200, ptr %23) #12
  %108 = getelementptr inbounds [200 x i8], ptr %23, i64 0, i64 0
  %109 = load i64, ptr %15, align 8
  %110 = load i64, ptr %12, align 8
  %111 = load i64, ptr %13, align 8
  %112 = load i64, ptr %16, align 8
  %113 = load i64, ptr %14, align 8
  %114 = load i64, ptr %15, align 8
  %115 = load i64, ptr %16, align 8
  %116 = sub i64 %114, %115
  %117 = call i32 (ptr, i64, ptr, ...) @pg_snprintf(ptr noundef %108, i64 noundef 200, ptr noundef @.str.4, i64 noundef %109, i64 noundef %110, i64 noundef %111, i64 noundef %112, i64 noundef %113, i64 noundef %116)
  %118 = load ptr, ptr %7, align 8
  %119 = load ptr, ptr %6, align 8
  %120 = load ptr, ptr %8, align 8
  %121 = getelementptr inbounds [200 x i8], ptr %23, i64 0, i64 0
  %122 = load i8, ptr %10, align 1, !range !9, !noundef !10
  %123 = trunc i8 %122 to i1
  call void %118(ptr noundef %119, ptr noundef %120, ptr noundef %121, i1 noundef zeroext %123)
  call void @llvm.lifetime.end.p0(i64 200, ptr %23) #12
  br label %124

124:                                              ; preds = %107, %104
  %125 = load ptr, ptr %9, align 8
  %126 = icmp ne ptr %125, null
  br i1 %126, label %127, label %148

127:                                              ; preds = %124
  %128 = load i64, ptr %12, align 8
  %129 = load ptr, ptr %9, align 8
  %130 = getelementptr inbounds nuw %struct.MemoryContextCounters, ptr %129, i32 0, i32 0
  %131 = load i64, ptr %130, align 8
  %132 = add i64 %131, %128
  store i64 %132, ptr %130, align 8
  %133 = load i64, ptr %14, align 8
  %134 = load ptr, ptr %9, align 8
  %135 = getelementptr inbounds nuw %struct.MemoryContextCounters, ptr %134, i32 0, i32 1
  %136 = load i64, ptr %135, align 8
  %137 = add i64 %136, %133
  store i64 %137, ptr %135, align 8
  %138 = load i64, ptr %15, align 8
  %139 = load ptr, ptr %9, align 8
  %140 = getelementptr inbounds nuw %struct.MemoryContextCounters, ptr %139, i32 0, i32 2
  %141 = load i64, ptr %140, align 8
  %142 = add i64 %141, %138
  store i64 %142, ptr %140, align 8
  %143 = load i64, ptr %16, align 8
  %144 = load ptr, ptr %9, align 8
  %145 = getelementptr inbounds nuw %struct.MemoryContextCounters, ptr %144, i32 0, i32 3
  %146 = load i64, ptr %145, align 8
  %147 = add i64 %146, %143
  store i64 %147, ptr %145, align 8
  br label %148

148:                                              ; preds = %127, %124
  call void @llvm.lifetime.end.p0(i64 16, ptr %17) #12
  call void @llvm.lifetime.end.p0(i64 8, ptr %16) #12
  call void @llvm.lifetime.end.p0(i64 8, ptr %15) #12
  call void @llvm.lifetime.end.p0(i64 8, ptr %14) #12
  call void @llvm.lifetime.end.p0(i64 8, ptr %13) #12
  call void @llvm.lifetime.end.p0(i64 8, ptr %12) #12
  call void @llvm.lifetime.end.p0(i64 8, ptr %11) #12
  ret void
}