; Function Attrs: nounwind uwtable
define dso_local void @GenerationStats(ptr noundef %0, ptr noundef readonly captures(address_is_null) %1, ptr noundef %2, ptr noundef captures(address_is_null) %3, i1 noundef zeroext %4) local_unnamed_addr #0 {
  %6 = alloca [200 x i8], align 16
  %7 = getelementptr inbounds nuw i8, ptr %0, i64 112
  %8 = getelementptr inbounds nuw i8, ptr %0, i64 120
  %9 = load ptr, ptr %8, align 8
  %.not = icmp eq ptr %9, null
  %.not444762 = icmp eq ptr %9, %7
  %.not4447 = select i1 %.not, i1 true, i1 %.not444762
  br i1 %.not4447, label %._crit_edge, label %.lr.ph

.lr.ph:                                           ; preds = %5, %.lr.ph
  %.053 = phi i64 [ %10, %.lr.ph ], [ 0, %5 ]
  %.03752 = phi i64 [ %14, %.lr.ph ], [ 0, %5 ]
  %.03851 = phi i64 [ %18, %.lr.ph ], [ 0, %5 ]
  %.03950 = phi i64 [ %21, %.lr.ph ], [ 128, %5 ]
  %.04049 = phi i64 [ %29, %.lr.ph ], [ 0, %5 ]
  %.sroa.0.048 = phi ptr [ %31, %.lr.ph ], [ %9, %5 ]
  %10 = add i64 %.053, 1
  %11 = getelementptr inbounds nuw i8, ptr %.sroa.0.048, i64 32
  %12 = load i32, ptr %11, align 8
  %13 = sext i32 %12 to i64
  %14 = add i64 %.03752, %13
  %15 = getelementptr inbounds nuw i8, ptr %.sroa.0.048, i64 36
  %16 = load i32, ptr %15, align 4
  %17 = sext i32 %16 to i64
  %18 = add i64 %.03851, %17
  %19 = getelementptr inbounds nuw i8, ptr %.sroa.0.048, i64 24
  %20 = load i64, ptr %19, align 8
  %21 = add i64 %20, %.03950
  %22 = getelementptr inbounds nuw i8, ptr %.sroa.0.048, i64 48
  %23 = load ptr, ptr %22, align 8
  %24 = getelementptr inbounds nuw i8, ptr %.sroa.0.048, i64 40
  %25 = load ptr, ptr %24, align 8
  %26 = ptrtoint ptr %23 to i64
  %27 = ptrtoint ptr %25 to i64
  %28 = add i64 %.04049, %26
  %29 = sub i64 %28, %27
  %30 = getelementptr inbounds nuw i8, ptr %.sroa.0.048, i64 8
  %31 = load ptr, ptr %30, align 8
  %.not44 = icmp eq ptr %31, %7
  br i1 %.not44, label %._crit_edge, label %.lr.ph, !llvm.loop !10

._crit_edge:                                      ; preds = %.lr.ph, %5
  %.040.lcssa = phi i64 [ 0, %5 ], [ %29, %.lr.ph ]
  %.039.lcssa = phi i64 [ 128, %5 ], [ %21, %.lr.ph ]
  %.038.lcssa = phi i64 [ 0, %5 ], [ %18, %.lr.ph ]
  %.037.lcssa = phi i64 [ 0, %5 ], [ %14, %.lr.ph ]
  %.0.lcssa = phi i64 [ 0, %5 ], [ %10, %.lr.ph ]
  %.not45 = icmp eq ptr %1, null
  br i1 %.not45, label %35, label %32

32:                                               ; preds = %._crit_edge
  call void @llvm.lifetime.start.p0(i64 200, ptr nonnull %6) #15
  %33 = sub i64 %.039.lcssa, %.040.lcssa
  %34 = call i32 (ptr, i64, ptr, ...) @pg_snprintf(ptr noundef nonnull %6, i64 noundef 200, ptr noundef nonnull @.str.4, i64 noundef %.039.lcssa, i64 noundef %.0.lcssa, i64 noundef %.037.lcssa, i64 noundef %.040.lcssa, i64 noundef %.038.lcssa, i64 noundef %33) #15
  call void %1(ptr noundef %0, ptr noundef %2, ptr noundef nonnull %6, i1 noundef zeroext %4) #15
  call void @llvm.lifetime.end.p0(i64 200, ptr nonnull %6) #15
  br label %35

35:                                               ; preds = %32, %._crit_edge
  %.not46 = icmp eq ptr %3, null
  br i1 %.not46, label %48, label %36

36:                                               ; preds = %35
  %37 = load i64, ptr %3, align 8
  %38 = add i64 %37, %.0.lcssa
  store i64 %38, ptr %3, align 8
  %39 = getelementptr inbounds nuw i8, ptr %3, i64 8
  %40 = load i64, ptr %39, align 8
  %41 = add i64 %40, %.038.lcssa
  store i64 %41, ptr %39, align 8
  %42 = getelementptr inbounds nuw i8, ptr %3, i64 16
  %43 = load i64, ptr %42, align 8
  %44 = add i64 %43, %.039.lcssa
  store i64 %44, ptr %42, align 8
  %45 = getelementptr inbounds nuw i8, ptr %3, i64 24
  %46 = load i64, ptr %45, align 8
  %47 = add i64 %46, %.040.lcssa
  store i64 %47, ptr %45, align 8
  br label %48

48:                                               ; preds = %36, %35
  ret void
}